MPASM 5.70                 LCD_FUNCTIONS.ASM   12-19-2016  17:18:15         PAGE  1


LOC  OBJECT CODE     LINE SOURCE TEXT
  VALUE

Warning[205]: Found directive in column 1. (LIST)
                      00001 LIST    P=PIC16F877
                      00002 #include <P16f877.inc>
                      00001         LIST
                      00002 
                      00003 ;==========================================================================
                      00004 ; Build date : Sep 13 2016
                      00005 ;  MPASM PIC16F877 processor include
                      00006 ; 
                      00007 ;  (c) Copyright 1999-2016 Microchip Technology, All rights reserved
                      00008 ;==========================================================================
                      00009 
                      00541         LIST
                      00003 
                      00004 LCD CODE 0x91
                      00005 
0091                  00006 INITDisplay:
                      00007    
                      00008    ;CALL BANK1 
0091   1683 1303      00009    BANKSEL TRISD                  
Message[302]: Register in operand not in bank 0.  Ensure that bank bits are correct.
0093   0188           00010    CLRF TRISD                  
0094   3006           00011    MOVLW 0X06                  
Message[302]: Register in operand not in bank 0.  Ensure that bank bits are correct.
0095   009F           00012    MOVWF ADCON1                ;SET ALL TO D
Message[302]: Register in operand not in bank 0.  Ensure that bank bits are correct.
0096   0189           00013    CLRF TRISE
                      00014    ;CALL BANK0
0097   1283 1303      00015    BANKSEL PORTD
0099   3030           00016    MOVLW 0X30                  ;RESET SCREEN
009A   0088           00017    MOVWF PORTD
009B   2???           00018    CALL FUNCTION.LCD.WRITE
009C   2???           00019    CALL INITDELAY
009D   3030           00020    MOVLW 0X30
009E   0088           00021    MOVWF PORTD
009F   2???           00022    CALL FUNCTION.LCD.WRITE
00A0   2???           00023    CALL INITDELAY
00A1   3030           00024    MOVLW 0X30
00A2   0088           00025    MOVWF PORTD
00A3   2???           00026    CALL FUNCTION.LCD.WRITE
00A4   2???           00027    CALL INITDELAY              ;END SCREEN RESET
00A5   3038           00028    MOVLW 0X38                  ;SET CONFIG. FOR SCREEN
00A6   0088           00029    MOVWF PORTD
00A7   2???           00030    CALL FUNCTION.LCD.WRITE
00A8   300C           00031    MOVLW 0X0C                  ;DISPLAY=ON BIT.D=1
00A9   0088           00032    MOVWF PORTD                 
00AA   2???           00033    CALL FUNCTION.LCD.WRITE
00AB   3001           00034    MOVLW 0X01                  ;DISPLAY CLEAR
00AC   0088           00035    MOVWF PORTD
00AD   2???           00036    CALL FUNCTION.LCD.WRITE 
00AE   3006           00037    MOVLW 0X06                  ;DISPLAY SET L.T.R
00AF   0088           00038    MOVWF PORTD
00B0   2???           00039    CALL FUNCTION.LCD.WRITE
MPASM 5.70                 LCD_FUNCTIONS.ASM   12-19-2016  17:18:15         PAGE  2


LOC  OBJECT CODE     LINE SOURCE TEXT
  VALUE

                      00040    
00B1   0008           00041    RETURN
                      00042 
  0000                00043  GLOBAL INITDisplay
                      00044    
00B2                  00045 FUNCTION.LCD.WRITE:            ;FUNCTION WRITE TO LCD
                      00046 
00B2   1089           00047  BCF PORTE,RE1
00B3   1409           00048  BSF PORTE,RE0
00B4   2???           00049  CALL INITDELAY
00B5   1009           00050  BCF PORTE,RE0
                      00051     
00B6   0008           00052     RETURN
                      00053 
                      00054  
                      00055     
00B7                  00056 VAL.LCD.WRITE:                 ;VAL WRITE ON SCREEN
                      00057 
00B7   1489           00058  BSF PORTE,RE1
00B8   1409           00059  BSF PORTE,RE0
00B9   2???           00060  CALL INITDELAY
00BA   1009           00061  BCF PORTE,RE0
                      00062     
00BB   0008           00063    RETURN    
                      00064 
                      00065   
                      00066 
00BC                  00067 PRINT.255:
                      00068         
00BC   3086           00069    MOVLW 0X86
00BD   0088           00070    MOVWF PORTD
                      00071    
00BE   2???           00072    CALL FUNCTION.LCD.WRITE
00BF   2???           00073    CALL ASCII.NUMBER
                      00074    
00C0   3003           00075    MOVLW 0X03
00C1   00C8           00076    MOVWF 0X48
                      00077    
00C2   3052           00078    MOVLW 0X52
00C3   0084           00079    MOVWF FSR
                      00080    
00C4                  00081 LOOP.3:   
                      00082    
00C4   0800           00083    MOVFW INDF
00C5   0088           00084    MOVWF PORTD
00C6   2???           00085    CALL VAL.LCD.WRITE
00C7   0384           00086    DECF FSR,F
00C8   0BC8           00087    DECFSZ 0X48,F
00C9   2???           00088    GOTO LOOP.3
                      00089    
00CA   0008           00090    RETURN   
                      00091 
  0000                00092  GLOBAL PRINT.255   
MPASM 5.70                 LCD_FUNCTIONS.ASM   12-19-2016  17:18:15         PAGE  3


LOC  OBJECT CODE     LINE SOURCE TEXT
  VALUE

                      00093 
00CB                  00094 ASCII.NUMBER:
                      00095    
00CB   3003           00096    MOVLW 0X03
00CC   00C8           00097    MOVWF 0X48
                      00098    
00CD   3052           00099    MOVLW 0X52
00CE   0084           00100    MOVWF FSR
                      00101    
00CF   3030           00102    MOVLW 0X30
                      00103    
00D0                  00104 LOOP.ASCII:
                      00105    
00D0   0780           00106    ADDWF INDF,F    
00D1   0384           00107    DECF FSR,F
00D2   0BC8           00108    DECFSZ 0X48,F
00D3   2???           00109    GOTO LOOP.ASCII
                      00110    
00D4   0008           00111    RETURN
                      00112 
Warning[207]: Found label after column 1. (FORMAT.TIME)
00D5                  00113  FORMAT.TIME:
                      00114           
00D5   3084           00115    MOVLW 0X84
00D6   0088           00116    MOVWF PORTD
00D7   2???           00117    CALL FUNCTION.LCD.WRITE 
                      00118    
00D8   3048           00119    MOVLW 0x48
00D9   0088           00120    MOVWF PORTD
00DA   2???           00121    CALL VAL.LCD.WRITE
00DB   2???           00122    CALL VAL.LCD.WRITE
                      00123    
00DC   303A           00124    MOVLW 0x3A
00DD   0088           00125    MOVWF PORTD
00DE   2???           00126    CALL VAL.LCD.WRITE
                      00127    
00DF   304D           00128    MOVLW 0x4D
00E0   0088           00129    MOVWF PORTD
00E1   2???           00130    CALL VAL.LCD.WRITE
00E2   2???           00131    CALL VAL.LCD.WRITE
                      00132    
00E3   303A           00133    MOVLW 0x3A
00E4   0088           00134    MOVWF PORTD
00E5   2???           00135    CALL VAL.LCD.WRITE
                      00136    
00E6   3053           00137    MOVLW 0x53
00E7   0088           00138    MOVWF PORTD
00E8   2???           00139    CALL VAL.LCD.WRITE
00E9   2???           00140    CALL VAL.LCD.WRITE
                      00141 
00EA   30C4           00142    MOVLW 0xC4
00EB   0088           00143    MOVWF PORTD
00EC   2???           00144    CALL FUNCTION.LCD.WRITE
MPASM 5.70                 LCD_FUNCTIONS.ASM   12-19-2016  17:18:15         PAGE  4


LOC  OBJECT CODE     LINE SOURCE TEXT
  VALUE

                      00145 
00ED   3053           00146    MOVLW 0x53
00EE   0088           00147    MOVWF PORTD
00EF   2???           00148    CALL VAL.LCD.WRITE
00F0   2???           00149    CALL VAL.LCD.WRITE
                      00150 
00F1   303A           00151    MOVLW 0x3A
00F2   0088           00152    MOVWF PORTD
00F3   2???           00153    CALL VAL.LCD.WRITE
                      00154    
00F4   3053           00155    MOVLW 0x53
00F5   0088           00156    MOVWF PORTD
00F6   2???           00157    CALL VAL.LCD.WRITE
00F7   2???           00158    CALL VAL.LCD.WRITE
                      00159 
00F8   303A           00160    MOVLW 0x3A
00F9   0088           00161    MOVWF PORTD
00FA   2???           00162    CALL VAL.LCD.WRITE
                      00163 
00FB   3053           00164    MOVLW 0x53
00FC   0088           00165    MOVWF PORTD
00FD   2???           00166    CALL VAL.LCD.WRITE
00FE   2???           00167    CALL VAL.LCD.WRITE
                      00168 
00FF   0008           00169    RETURN
Warning[205]: Found directive in column 1. (GLOBAL)
  0000                00170 GLOBAL FORMAT.TIME   
                      00171    
0100                  00172 BANK0:
                      00173 
0100   1383           00174     BCF STATUS,IRP
0101   1283           00175     BCF STATUS,RP0
0102   1303           00176     BCF STATUS,RP1
                      00177     
0103   0008           00178     RETURN
                      00179     
0104                  00180 BANK1:
                      00181 
0104   1383           00182     BCF STATUS,IRP
0105   1303           00183     BCF STATUS,RP1
0106   1683           00184     BSF STATUS,RP0
                      00185     
0107   0008           00186     RETURN
                      00187     
0108                  00188 BANK2:
                      00189 
0108   1783           00190     BSF STATUS,IRP
0109   1703           00191     BSF STATUS,RP1
010A   1283           00192     BCF STATUS,RP0
                      00193     
010B   0008           00194     RETURN 
                      00195     
010C                  00196 BANK3:
MPASM 5.70                 LCD_FUNCTIONS.ASM   12-19-2016  17:18:15         PAGE  5


LOC  OBJECT CODE     LINE SOURCE TEXT
  VALUE

                      00197 
010C   1783           00198     BSF STATUS,IRP
010D   1703           00199     BSF STATUS,RP1
010E   1683           00200     BSF STATUS,RP0
                      00201     
010F   0008           00202     RETURN   
                      00203 
0110                  00204 INITDELAY:          ;INIT DELAY 2ms
                      00205 
0110   3020           00206     movlw 0X20          
0111   00C0           00207     movwf 0x40         
                      00208     
0112                  00209 DELAY0:
                      00210     
0112   0BC0           00211     DECFSZ 0x40,f
0113   2???           00212     GOTO DELAY0
                      00213     
0114   0008           00214     RETURN
                      00215         
                      00216     END
MPASM 5.70                 LCD_FUNCTIONS.ASM   12-19-2016  17:18:15         PAGE  6


SYMBOL TABLE
  LABEL                             VALUE 

ACKDT                             00000005
ACKEN                             00000004
ACKSTAT                           00000006
ADCON0                            0000001F
ADCON1                            0000009F
ADCS0                             00000006
ADCS1                             00000007
ADDEN                             00000003
ADFM                              00000007
ADIE                              00000006
ADIF                              00000006
ADON                              00000000
ADRESH                            0000001E
ADRESL                            0000009E
ASCII.NUMBER                      000000CB
BANK0                             00000100
BANK1                             00000104
BANK2                             00000108
BANK3                             0000010C
BCLIE                             00000003
BCLIF                             00000003
BF                                00000000
BRGH                              00000002
C                                 00000000
CCP1CON                           00000017
CCP1IE                            00000002
CCP1IF                            00000002
CCP1M0                            00000000
CCP1M1                            00000001
CCP1M2                            00000002
CCP1M3                            00000003
CCP1X                             00000005
CCP1Y                             00000004
CCP2CON                           0000001D
CCP2IE                            00000000
CCP2IF                            00000000
CCP2M0                            00000000
CCP2M1                            00000001
CCP2M2                            00000002
CCP2M3                            00000003
CCP2X                             00000005
CCP2Y                             00000004
CCPR1                             00000015
CCPR1H                            00000016
CCPR1L                            00000015
CCPR2                             0000001B
CCPR2H                            0000001C
CCPR2L                            0000001B
CHS0                              00000003
CHS1                              00000004
CHS2                              00000005
CKE                               00000006
CKP                               00000004
MPASM 5.70                 LCD_FUNCTIONS.ASM   12-19-2016  17:18:15         PAGE  7


SYMBOL TABLE
  LABEL                             VALUE 

CREN                              00000004
CSRC                              00000007
D                                 00000005
DATA_ADDRESS                      00000005
DC                                00000001
DELAY0                            00000112
D_A                               00000005
D_NOT_A                           00000005
EEADR                             0000010D
EEADRH                            0000010F
EECON1                            0000018C
EECON2                            0000018D
EEDATA                            0000010C
EEDATH                            0000010E
EEIE                              00000004
EEIF                              00000004
EEPGD                             00000007
F                                 00000001
FERR                              00000002
FORMAT.TIME                       000000D5
FSR                               00000004
FUNCTION.LCD.WRITE                000000B2
GCEN                              00000007
GIE                               00000007
GO                                00000002
GO_DONE                           00000002
GO_NOT_DONE                       00000002
I2C_DATA                          00000005
I2C_READ                          00000002
I2C_START                         00000003
I2C_STOP                          00000004
IBF                               00000007
IBOV                              00000005
INDF                              00000000
INITDELAY                         00000110
INITDisplay                       00000091
INTCON                            0000000B
INTE                              00000004
INTEDG                            00000006
INTF                              00000001
IRP                               00000007
LOOP.3                            000000C4
LOOP.ASCII                        000000D0
NOT_A                             00000005
NOT_ADDRESS                       00000005
NOT_BO                            00000000
NOT_BOR                           00000000
NOT_DONE                          00000002
NOT_PD                            00000003
NOT_POR                           00000001
NOT_RBPU                          00000007
NOT_RC8                           00000006
NOT_T1SYNC                        00000002
MPASM 5.70                 LCD_FUNCTIONS.ASM   12-19-2016  17:18:15         PAGE  8


SYMBOL TABLE
  LABEL                             VALUE 

NOT_TO                            00000004
NOT_TX8                           00000006
NOT_W                             00000002
NOT_WRITE                         00000002
OBF                               00000006
OERR                              00000001
OPTION_REG                        00000081
P                                 00000004
PCFG0                             00000000
PCFG1                             00000001
PCFG2                             00000002
PCFG3                             00000003
PCL                               00000002
PCLATH                            0000000A
PCON                              0000008E
PEIE                              00000006
PEN                               00000002
PIE1                              0000008C
PIE2                              0000008D
PIR1                              0000000C
PIR2                              0000000D
PORTA                             00000005
PORTB                             00000006
PORTC                             00000007
PORTD                             00000008
PORTE                             00000009
PR2                               00000092
PRINT.255                         000000BC
PS0                               00000000
PS1                               00000001
PS2                               00000002
PSA                               00000003
PSPIE                             00000007
PSPIF                             00000007
PSPMODE                           00000004
R                                 00000002
RA0                               00000000
RA1                               00000001
RA2                               00000002
RA3                               00000003
RA4                               00000004
RA5                               00000005
RB0                               00000000
RB1                               00000001
RB2                               00000002
RB3                               00000003
RB4                               00000004
RB5                               00000005
RB6                               00000006
RB7                               00000007
RBIE                              00000003
RBIF                              00000000
RC0                               00000000
MPASM 5.70                 LCD_FUNCTIONS.ASM   12-19-2016  17:18:15         PAGE  9


SYMBOL TABLE
  LABEL                             VALUE 

RC1                               00000001
RC2                               00000002
RC3                               00000003
RC4                               00000004
RC5                               00000005
RC6                               00000006
RC7                               00000007
RC8_9                             00000006
RC9                               00000006
RCD8                              00000000
RCEN                              00000003
RCIE                              00000005
RCIF                              00000005
RCREG                             0000001A
RCSTA                             00000018
RD                                00000000
RD0                               00000000
RD1                               00000001
RD2                               00000002
RD3                               00000003
RD4                               00000004
RD5                               00000005
RD6                               00000006
RD7                               00000007
RE0                               00000000
RE1                               00000001
RE2                               00000002
READ_WRITE                        00000002
RP0                               00000005
RP1                               00000006
RSEN                              00000001
RX9                               00000006
RX9D                              00000000
R_NOT_W                           00000002
R_W                               00000002
S                                 00000003
SEN                               00000000
SMP                               00000007
SPBRG                             00000099
SPEN                              00000007
SREN                              00000005
SSPADD                            00000093
SSPBUF                            00000013
SSPCON                            00000014
SSPCON2                           00000091
SSPEN                             00000005
SSPIE                             00000003
SSPIF                             00000003
SSPM0                             00000000
SSPM1                             00000001
SSPM2                             00000002
SSPM3                             00000003
SSPOV                             00000006
MPASM 5.70                 LCD_FUNCTIONS.ASM   12-19-2016  17:18:15         PAGE 10


SYMBOL TABLE
  LABEL                             VALUE 

SSPSTAT                           00000094
STATUS                            00000003
SYNC                              00000004
T0CS                              00000005
T0IE                              00000005
T0IF                              00000002
T0SE                              00000004
T1CKPS0                           00000004
T1CKPS1                           00000005
T1CON                             00000010
T1INSYNC                          00000002
T1OSCEN                           00000003
T1SYNC                            00000002
T2CKPS0                           00000000
T2CKPS1                           00000001
T2CON                             00000012
TMR0                              00000001
TMR0IE                            00000005
TMR0IF                            00000002
TMR1                              0000000E
TMR1CS                            00000001
TMR1H                             0000000F
TMR1IE                            00000000
TMR1IF                            00000000
TMR1L                             0000000E
TMR1ON                            00000000
TMR2                              00000011
TMR2IE                            00000001
TMR2IF                            00000001
TMR2ON                            00000002
TOUTPS0                           00000003
TOUTPS1                           00000004
TOUTPS2                           00000005
TOUTPS3                           00000006
TRISA                             00000085
TRISA0                            00000000
TRISA1                            00000001
TRISA2                            00000002
TRISA3                            00000003
TRISA4                            00000004
TRISA5                            00000005
TRISB                             00000086
TRISB0                            00000000
TRISB1                            00000001
TRISB2                            00000002
TRISB3                            00000003
TRISB4                            00000004
TRISB5                            00000005
TRISB6                            00000006
TRISB7                            00000007
TRISC                             00000087
TRISC0                            00000000
TRISC1                            00000001
MPASM 5.70                 LCD_FUNCTIONS.ASM   12-19-2016  17:18:15         PAGE 11


SYMBOL TABLE
  LABEL                             VALUE 

TRISC2                            00000002
TRISC3                            00000003
TRISC4                            00000004
TRISC5                            00000005
TRISC6                            00000006
TRISC7                            00000007
TRISD                             00000088
TRISD0                            00000000
TRISD1                            00000001
TRISD2                            00000002
TRISD3                            00000003
TRISD4                            00000004
TRISD5                            00000005
TRISD6                            00000006
TRISD7                            00000007
TRISE                             00000089
TRISE0                            00000000
TRISE1                            00000001
TRISE2                            00000002
TRMT                              00000001
TX8_9                             00000006
TX9                               00000006
TX9D                              00000000
TXD8                              00000000
TXEN                              00000005
TXIE                              00000004
TXIF                              00000004
TXREG                             00000019
TXSTA                             00000098
UA                                00000001
VAL.LCD.WRITE                     000000B7
W                                 00000000
WCOL                              00000007
WR                                00000001
WREN                              00000002
WRERR                             00000003
Z                                 00000002
_BODEN_OFF                        00003FBF
_BODEN_ON                         00003FFF
_BOREN_OFF                        00003FBF
_BOREN_ON                         00003FFF
_CONFIG                           00002007
_CPD_OFF                          00003FFF
_CPD_ON                           00003EFF
_CP_ALL                           00000FCF
_CP_HALF                          00001FDF
_CP_OFF                           00003FFF
_CP_UPPER_256                     00002FEF
_DEBUG_OFF                        00003FFF
_DEBUG_ON                         000037FF
_DEVID1                           00002006
_FOSC_EXTRC                       00003FFF
_FOSC_HS                          00003FFE
MPASM 5.70                 LCD_FUNCTIONS.ASM   12-19-2016  17:18:15         PAGE 12


SYMBOL TABLE
  LABEL                             VALUE 

_FOSC_LP                          00003FFC
_FOSC_XT                          00003FFD
_HS_OSC                           00003FFE
_IDLOC0                           00002000
_IDLOC1                           00002001
_IDLOC2                           00002002
_IDLOC3                           00002003
_LP_OSC                           00003FFC
_LVP_OFF                          00003F7F
_LVP_ON                           00003FFF
_PWRTE_OFF                        00003FFF
_PWRTE_ON                         00003FF7
_RC_OSC                           00003FFF
_WDTE_OFF                         00003FFB
_WDTE_ON                          00003FFF
_WDT_OFF                          00003FFB
_WDT_ON                           00003FFF
_WRT_ENABLE_OFF                   00003DFF
_WRT_ENABLE_ON                    00003FFF
_WRT_OFF                          00003DFF
_WRT_ON                           00003FFF
_XT_OSC                           00003FFD
__16F877                          00000001

Errors   :     0
Warnings :     3 reported,     0 suppressed
Messages :     3 reported,     0 suppressed

